; Function Attrs: mustprogress nofree norecurse nosync nounwind willreturn memory(read, argmem: readwrite, inaccessiblemem: none) uwtable
define hidden void @_Py_Specialize_CompareOp(i64 %0, i64 %1, ptr noundef captures(none) %2, i32 noundef %3) local_unnamed_addr #2 {
  %5 = inttoptr i64 %0 to ptr
  %6 = inttoptr i64 %1 to ptr
  %7 = getelementptr i8, ptr %5, i64 8
  %.val21 = load ptr, ptr %7, align 8, !tbaa !9
  %8 = getelementptr i8, ptr %6, i64 8
  %.val = load ptr, ptr %8, align 8, !tbaa !9
  %.not = icmp eq ptr %.val21, %.val
  br i1 %.not, label %9, label %21

9:                                                ; preds = %4
  %.not27 = icmp eq ptr %.val21, @PyFloat_Type
  br i1 %.not27, label %35, label %10

10:                                               ; preds = %9
  %.not28 = icmp eq ptr %.val21, @PyLong_Type
  br i1 %.not28, label %11, label %17

11:                                               ; preds = %10
  %12 = getelementptr i8, ptr %5, i64 16
  %.val25 = load i64, ptr %12, align 8, !tbaa !153
  %13 = icmp ugt i64 %.val25, 15
  br i1 %13, label %21, label %14

14:                                               ; preds = %11
  %15 = getelementptr i8, ptr %6, i64 16
  %.val26 = load i64, ptr %15, align 8, !tbaa !153
  %16 = icmp ugt i64 %.val26, 15
  br i1 %16, label %21, label %35

17:                                               ; preds = %10
  %.not29 = icmp eq ptr %.val21, @PyUnicode_Type
  br i1 %.not29, label %18, label %21

18:                                               ; preds = %17
  %19 = ashr i32 %3, 5
  %20 = add nsw i32 %19, -4
  %or.cond = icmp ult i32 %20, -2
  br i1 %or.cond, label %21, label %35

21:                                               ; preds = %18, %17, %11, %14, %4
  %22 = load i8, ptr %2, align 2, !tbaa !4
  %23 = zext i8 %22 to i64
  %24 = getelementptr [256 x i8], ptr @_PyOpcode_Deopt, i64 0, i64 %23
  %25 = load i8, ptr %24, align 1, !tbaa !4
  store i8 %25, ptr %2, align 2, !tbaa !4
  %26 = getelementptr i8, ptr %2, i64 2
  %.val.i = load i16, ptr %26, align 2, !tbaa !24
  %27 = and i16 %.val.i, 15
  %28 = icmp samesign ult i16 %27, 12
  br i1 %28, label %29, label %unspecialize.exit

29:                                               ; preds = %21
  %narrow.i.i.i = add nuw nsw i16 %27, 1
  %30 = zext nneg i16 %narrow.i.i.i to i32
  %notmask.i.i.i = shl nsw i32 -1, %30
  %31 = trunc i32 %notmask.i.i.i to i16
  %32 = xor i16 %31, -1
  %33 = shl nuw i16 %32, 4
  %34 = or i16 %33, %narrow.i.i.i
  br label %unspecialize.exit

unspecialize.exit:                                ; preds = %21, %29
  %.sroa.03.0.i.i.i = phi i16 [ %34, %29 ], [ -4, %21 ]
  store i16 %.sroa.03.0.i.i.i, ptr %26, align 2, !tbaa !24
  br label %37

35:                                               ; preds = %18, %14, %9
  %.015 = phi i8 [ -68, %18 ], [ -70, %9 ], [ -69, %14 ]
  store i8 %.015, ptr %2, align 2, !tbaa !4
  %36 = getelementptr i8, ptr %2, i64 2
  store i16 832, ptr %36, align 2, !tbaa !24
  br label %37

37:                                               ; preds = %35, %unspecialize.exit
  ret void
}